target datalayout = "e-m:e-p270:32:32-p271:32:32-p272:64:64-i64:64-i128:128-f80:128-n8:16:32:64-S128"
target triple = "x86_64-pc-linux-gnu"

%"struct.vcpkg::msg::MessageT" = type { i64 }
%"class.std::__cxx11::basic_string" = type { %"struct.std::__cxx11::basic_string<char>::_Alloc_hider", i64, %union.anon }
%"struct.std::__cxx11::basic_string<char>::_Alloc_hider" = type { ptr }
%union.anon = type { i64, [8 x i8] }
%"struct.vcpkg::StringView" = type { ptr, i64 }
%"struct.vcpkg::LocalizedString" = type { %"class.std::__cxx11::basic_string" }

@_ZN5vcpkg20msgChecksUpdateVcpkgE = external global %"struct.vcpkg::msg::MessageT", align 8

; Function Attrs: mustprogress nounwind uwtable
define linkonce_odr dso_local void @_ZNSt15__new_allocatorIcE10deallocateEPcm(ptr noundef nonnull align 1 dereferenceable(1) %0, ptr noundef %1, i64 noundef %2) #3 comdat align 2 {
  %4 = alloca ptr, align 8
  %5 = alloca ptr, align 8
  %6 = alloca i64, align 8
  store ptr %0, ptr %4, align 8, !tbaa !231
  store ptr %1, ptr %5, align 8, !tbaa !16
  store i64 %2, ptr %6, align 8, !tbaa !29
  %7 = load ptr, ptr %5, align 8, !tbaa !16
  %8 = load i64, ptr %6, align 8, !tbaa !29
  %9 = mul i64 %8, 1
  call void @_ZdlPvm(ptr noundef %7, i64 noundef %9) #22
  ret void
}

; Function Attrs: mustprogress nounwind uwtable
define linkonce_odr dso_local noundef ptr @_ZNSt19__ptr_traits_ptr_toIPKcS0_Lb0EE10pointer_toERS0_(ptr noundef nonnull align 1 dereferenceable(1) %0) #3 comdat align 2 {
  %2 = alloca ptr, align 8
  store ptr %0, ptr %2, align 8, !tbaa !16
  %3 = load ptr, ptr %2, align 8, !tbaa !16
  ret ptr %3
}

; Function Attrs: mustprogress uwtable
define linkonce_odr dso_local void @_ZNSt16allocator_traitsISaIcEE10deallocateERS0_Pcm(ptr noundef nonnull align 1 dereferenceable(1) %0, ptr noundef %1, i64 noundef %2) #0 comdat align 2 {
  %4 = alloca ptr, align 8
  %5 = alloca ptr, align 8
  %6 = alloca i64, align 8
  store ptr %0, ptr %4, align 8, !tbaa !229
  store ptr %1, ptr %5, align 8, !tbaa !16
  store i64 %2, ptr %6, align 8, !tbaa !29
  %7 = load ptr, ptr %4, align 8, !tbaa !229
  %8 = load ptr, ptr %5, align 8, !tbaa !16
  %9 = load i64, ptr %6, align 8, !tbaa !29
  call void @_ZNSt15__new_allocatorIcE10deallocateEPcm(ptr noundef nonnull align 1 dereferenceable(1) %7, ptr noundef %8, i64 noundef %9)
  ret void
}

; Function Attrs: mustprogress nounwind uwtable
define available_externally noundef nonnull align 1 dereferenceable(1) ptr @_ZNSt7__cxx1112basic_stringIcSt11char_traitsIcESaIcEE16_M_get_allocatorEv(ptr noundef nonnull align 8 dereferenceable(32) %0) #3 align 2 {
  %2 = alloca ptr, align 8
  store ptr %0, ptr %2, align 8, !tbaa !46
  %3 = load ptr, ptr %2, align 8
  %4 = getelementptr inbounds nuw %"class.std::__cxx11::basic_string", ptr %3, i32 0, i32 0
  ret ptr %4
}

; Function Attrs: mustprogress nounwind uwtable
define available_externally noundef ptr @_ZNKSt7__cxx1112basic_stringIcSt11char_traitsIcESaIcEE13_M_local_dataEv(ptr noundef nonnull align 8 dereferenceable(32) %0) #3 align 2 {
  %2 = alloca ptr, align 8
  store ptr %0, ptr %2, align 8, !tbaa !46
  %3 = load ptr, ptr %2, align 8
  %4 = getelementptr inbounds nuw %"class.std::__cxx11::basic_string", ptr %3, i32 0, i32 2
  %5 = getelementptr inbounds [16 x i8], ptr %4, i64 0, i64 0
  %6 = call noundef ptr @_ZNSt19__ptr_traits_ptr_toIPKcS0_Lb0EE10pointer_toERS0_(ptr noundef nonnull align 1 dereferenceable(1) %5) #18
  ret ptr %6
}

; Function Attrs: mustprogress nounwind uwtable
define available_externally noundef ptr @_ZNKSt7__cxx1112basic_stringIcSt11char_traitsIcESaIcEE7_M_dataEv(ptr noundef nonnull align 8 dereferenceable(32) %0) #3 align 2 {
  %2 = alloca ptr, align 8
  store ptr %0, ptr %2, align 8, !tbaa !46
  %3 = load ptr, ptr %2, align 8
  %4 = getelementptr inbounds nuw %"class.std::__cxx11::basic_string", ptr %3, i32 0, i32 0
  %5 = getelementptr inbounds nuw %"struct.std::__cxx11::basic_string<char>::_Alloc_hider", ptr %4, i32 0, i32 0
  %6 = load ptr, ptr %5, align 8, !tbaa !228
  ret ptr %6
}

; Function Attrs: mustprogress nounwind uwtable
define available_externally void @_ZNSt7__cxx1112basic_stringIcSt11char_traitsIcESaIcEE10_M_destroyEm(ptr noundef nonnull align 8 dereferenceable(32) %0, i64 noundef %1) #3 align 2 personality ptr @__gxx_personality_v0 {
  %3 = alloca ptr, align 8
  %4 = alloca i64, align 8
  store ptr %0, ptr %3, align 8, !tbaa !46
  store i64 %1, ptr %4, align 8, !tbaa !29
  %5 = load ptr, ptr %3, align 8
  %6 = invoke noundef nonnull align 1 dereferenceable(1) ptr @_ZNSt7__cxx1112basic_stringIcSt11char_traitsIcESaIcEE16_M_get_allocatorEv(ptr noundef nonnull align 8 dereferenceable(32) %5)
          to label %7 unwind label %12

7:                                                ; preds = %2
  %8 = call noundef ptr @_ZNKSt7__cxx1112basic_stringIcSt11char_traitsIcESaIcEE7_M_dataEv(ptr noundef nonnull align 8 dereferenceable(32) %5)
  %9 = load i64, ptr %4, align 8, !tbaa !29
  %10 = add i64 %9, 1
  invoke void @_ZNSt16allocator_traitsISaIcEE10deallocateERS0_Pcm(ptr noundef nonnull align 1 dereferenceable(1) %6, ptr noundef %8, i64 noundef %10)
          to label %11 unwind label %12

11:                                               ; preds = %7
  ret void

12:                                               ; preds = %7, %2
  %13 = landingpad { ptr, i32 }
          catch ptr null
  %14 = extractvalue { ptr, i32 } %13, 0
  call void @__clang_call_terminate(ptr %14) #19
  unreachable
}

; Function Attrs: mustprogress uwtable
define available_externally noundef zeroext i1 @_ZNKSt7__cxx1112basic_stringIcSt11char_traitsIcESaIcEE11_M_is_localEv(ptr noundef nonnull align 8 dereferenceable(32) %0) #0 align 2 {
  %2 = alloca i1, align 1
  %3 = alloca ptr, align 8
  store ptr %0, ptr %3, align 8, !tbaa !46
  %4 = load ptr, ptr %3, align 8
  %5 = call noundef ptr @_ZNKSt7__cxx1112basic_stringIcSt11char_traitsIcESaIcEE7_M_dataEv(ptr noundef nonnull align 8 dereferenceable(32) %4)
  %6 = call noundef ptr @_ZNKSt7__cxx1112basic_stringIcSt11char_traitsIcESaIcEE13_M_local_dataEv(ptr noundef nonnull align 8 dereferenceable(32) %4)
  %7 = icmp eq ptr %5, %6
  br i1 %7, label %8, label %14

8:                                                ; preds = %1
  %9 = getelementptr inbounds nuw %"class.std::__cxx11::basic_string", ptr %4, i32 0, i32 1
  %10 = load i64, ptr %9, align 8, !tbaa !225
  %11 = icmp ugt i64 %10, 15
  br i1 %11, label %12, label %13

12:                                               ; preds = %8
  unreachable

13:                                               ; preds = %8
  store i1 true, ptr %2, align 1
  br label %15

14:                                               ; preds = %1
  store i1 false, ptr %2, align 1
  br label %15

15:                                               ; preds = %14, %13
  %16 = load i1, ptr %2, align 1
  ret i1 %16
}

; Function Attrs: noinline noreturn nounwind uwtable
define linkonce_odr hidden void @__clang_call_terminate(ptr noundef %0) #16 comdat {
  %2 = call ptr @__cxa_begin_catch(ptr %0) #18
  call void @_ZSt9terminatev() #19
  unreachable
}

; Function Attrs: mustprogress nounwind uwtable
define linkonce_odr dso_local void @_ZNSt15__new_allocatorIcED2Ev(ptr noundef nonnull align 1 dereferenceable(1) %0) unnamed_addr #3 comdat align 2 {
  %2 = alloca ptr, align 8
  store ptr %0, ptr %2, align 8, !tbaa !231
  ret void
}

; Function Attrs: mustprogress uwtable
define available_externally void @_ZNSt7__cxx1112basic_stringIcSt11char_traitsIcESaIcEE10_M_disposeEv(ptr noundef nonnull align 8 dereferenceable(32) %0) #0 align 2 {
  %2 = alloca ptr, align 8
  store ptr %0, ptr %2, align 8, !tbaa !46
  %3 = load ptr, ptr %2, align 8
  %4 = call noundef zeroext i1 @_ZNKSt7__cxx1112basic_stringIcSt11char_traitsIcESaIcEE11_M_is_localEv(ptr noundef nonnull align 8 dereferenceable(32) %3)
  br i1 %4, label %8, label %5

5:                                                ; preds = %1
  %6 = getelementptr inbounds nuw %"class.std::__cxx11::basic_string", ptr %3, i32 0, i32 2
  %7 = load i64, ptr %6, align 8, !tbaa !34
  call void @_ZNSt7__cxx1112basic_stringIcSt11char_traitsIcESaIcEE10_M_destroyEm(ptr noundef nonnull align 8 dereferenceable(32) %3, i64 noundef %7) #18
  br label %8

8:                                                ; preds = %5, %1
  ret void
}

; Function Attrs: mustprogress nounwind uwtable
define available_externally void @_ZNSt7__cxx1112basic_stringIcSt11char_traitsIcESaIcEED2Ev(ptr noundef nonnull align 8 dereferenceable(32) %0) unnamed_addr #3 align 2 personality ptr @__gxx_personality_v0 {
  %2 = alloca ptr, align 8
  store ptr %0, ptr %2, align 8, !tbaa !46
  %3 = load ptr, ptr %2, align 8
  invoke void @_ZNSt7__cxx1112basic_stringIcSt11char_traitsIcESaIcEE10_M_disposeEv(ptr noundef nonnull align 8 dereferenceable(32) %3)
          to label %4 unwind label %6

4:                                                ; preds = %1
  %5 = getelementptr inbounds nuw %"class.std::__cxx11::basic_string", ptr %3, i32 0, i32 0
  call void @_ZNSt15__new_allocatorIcED2Ev(ptr noundef nonnull align 8 dereferenceable(8) %5) #18
  ret void

6:                                                ; preds = %1
  %7 = landingpad { ptr, i32 }
          catch ptr null
  %8 = extractvalue { ptr, i32 } %7, 0
  call void @__clang_call_terminate(ptr %8) #19
  unreachable
}

; Function Attrs: mustprogress uwtable
define linkonce_odr dso_local noundef nonnull align 8 dereferenceable(32) ptr @_ZNR5vcpkg15LocalizedString6appendIJEJEEERS0_NS_3msg8MessageTIJDpT_EEEDpNS3_6TagArgINS_8identityIS5_E4typeET0_EE(ptr noundef nonnull align 8 dereferenceable(32) %0, i64 %1) #0 comdat align 2 {
  %3 = alloca %"struct.vcpkg::msg::MessageT", align 8
  %4 = alloca ptr, align 8
  %5 = alloca %"struct.vcpkg::msg::MessageT", align 8
  %6 = getelementptr inbounds nuw %"struct.vcpkg::msg::MessageT", ptr %3, i32 0, i32 0
  store i64 %1, ptr %6, align 8
  store ptr %0, ptr %4, align 8, !tbaa !31
  %7 = load ptr, ptr %4, align 8
  call void @llvm.memcpy.p0.p0.i64(ptr align 8 %5, ptr align 8 %3, i64 8, i1 false), !tbaa.struct !28
  %8 = getelementptr inbounds nuw %"struct.vcpkg::msg::MessageT", ptr %5, i32 0, i32 0
  %9 = load i64, ptr %8, align 8
  call void @_ZN5vcpkg3msg9format_toIJEJEEEvRNS_15LocalizedStringENS0_8MessageTIJDpT_EEEDpNS0_6TagArgINS_8identityIS5_E4typeET0_EE(ptr noundef nonnull align 8 dereferenceable(32) %7, i64 %9)
  ret ptr %7
}

; Function Attrs: inlinehint mustprogress nounwind uwtable
define linkonce_odr dso_local void @_ZN5vcpkg15LocalizedStringD2Ev(ptr noundef nonnull align 8 dereferenceable(32) %0) unnamed_addr #9 comdat align 2 {
  %2 = alloca ptr, align 8
  store ptr %0, ptr %2, align 8, !tbaa !31
  %3 = load ptr, ptr %2, align 8
  %4 = getelementptr inbounds nuw %"struct.vcpkg::LocalizedString", ptr %3, i32 0, i32 0
  call void @_ZNSt7__cxx1112basic_stringIcSt11char_traitsIcESaIcEED2Ev(ptr noundef nonnull align 8 dereferenceable(32) %4) #18
  ret void
}

; Function Attrs: mustprogress uwtable
define linkonce_odr dso_local noundef nonnull align 8 dereferenceable(32) ptr @_ZNO5vcpkg15LocalizedString6appendIJEJEEEOS0_NS_3msg8MessageTIJDpT_EEEDpNS3_6TagArgINS_8identityIS5_E4typeET0_EE(ptr noundef nonnull align 8 dereferenceable(32) %0, i64 %1) #0 comdat align 2 {
  %3 = alloca %"struct.vcpkg::msg::MessageT", align 8
  %4 = alloca ptr, align 8
  %5 = alloca %"struct.vcpkg::msg::MessageT", align 8
  %6 = getelementptr inbounds nuw %"struct.vcpkg::msg::MessageT", ptr %3, i32 0, i32 0
  store i64 %1, ptr %6, align 8
  store ptr %0, ptr %4, align 8, !tbaa !31
  %7 = load ptr, ptr %4, align 8
  call void @llvm.memcpy.p0.p0.i64(ptr align 8 %5, ptr align 8 %3, i64 8, i1 false), !tbaa.struct !28
  %8 = getelementptr inbounds nuw %"struct.vcpkg::msg::MessageT", ptr %5, i32 0, i32 0
  %9 = load i64, ptr %8, align 8
  %10 = call noundef nonnull align 8 dereferenceable(32) ptr @_ZNR5vcpkg15LocalizedString6appendIJEJEEERS0_NS_3msg8MessageTIJDpT_EEEDpNS3_6TagArgINS_8identityIS5_E4typeET0_EE(ptr noundef nonnull align 8 dereferenceable(32) %7, i64 %9)
  ret ptr %10
}

; Function Attrs: mustprogress uwtable
define internal void @_ZN5vcpkgL23display_upgrade_messageEv() #0 personality ptr @__gxx_personality_v0 {
  %1 = alloca %"struct.vcpkg::StringView", align 8
  %2 = alloca %"struct.vcpkg::LocalizedString", align 8
  %3 = alloca %"struct.vcpkg::msg::MessageT", align 8
  %4 = alloca ptr, align 8
  %5 = alloca i32, align 4
  call void @llvm.lifetime.start.p0(i64 32, ptr %2) #18
  call void @_ZN5vcpkg11note_prefixEv(ptr dead_on_unwind writable sret(%"struct.vcpkg::LocalizedString") align 8 %2)
  call void @llvm.memcpy.p0.p0.i64(ptr align 8 %3, ptr align 8 @_ZN5vcpkg20msgChecksUpdateVcpkgE, i64 8, i1 false), !tbaa.struct !28
  %6 = getelementptr inbounds nuw %"struct.vcpkg::msg::MessageT", ptr %3, i32 0, i32 0
  %7 = load i64, ptr %6, align 8
  %8 = invoke noundef nonnull align 8 dereferenceable(32) ptr @_ZNO5vcpkg15LocalizedString6appendIJEJEEEOS0_NS_3msg8MessageTIJDpT_EEEDpNS3_6TagArgINS_8identityIS5_E4typeET0_EE(ptr noundef nonnull align 8 dereferenceable(32) %2, i64 %7)
          to label %9 unwind label %22

9:                                                ; preds = %0
  %10 = invoke noundef nonnull align 8 dereferenceable(32) ptr @_ZNO5vcpkg15LocalizedString10append_rawEc(ptr noundef nonnull align 8 dereferenceable(32) %8, i8 noundef signext 10)
          to label %11 unwind label %22

11:                                               ; preds = %9
  %12 = call { ptr, i64 } @_ZNK5vcpkg15LocalizedStringcvNS_10StringViewEEv(ptr noundef nonnull align 8 dereferenceable(32) %10) #18
  %13 = getelementptr inbounds nuw { ptr, i64 }, ptr %1, i32 0, i32 0
  %14 = extractvalue { ptr, i64 } %12, 0
  store ptr %14, ptr %13, align 8
  %15 = getelementptr inbounds nuw { ptr, i64 }, ptr %1, i32 0, i32 1
  %16 = extractvalue { ptr, i64 } %12, 1
  store i64 %16, ptr %15, align 8
  %17 = getelementptr inbounds nuw { ptr, i64 }, ptr %1, i32 0, i32 0
  %18 = load ptr, ptr %17, align 8
  %19 = getelementptr inbounds nuw { ptr, i64 }, ptr %1, i32 0, i32 1
  %20 = load i64, ptr %19, align 8
  invoke void @_ZN5vcpkg3msg32write_unlocalized_text_to_stderrENS_5ColorENS_10StringViewE(i8 noundef signext 49, ptr %18, i64 %20)
          to label %21 unwind label %22

21:                                               ; preds = %11
  call void @_ZN5vcpkg15LocalizedStringD2Ev(ptr noundef nonnull align 8 dereferenceable(32) %2) #18
  call void @llvm.lifetime.end.p0(i64 32, ptr %2) #18
  ret void

22:                                               ; preds = %11, %9, %0
  %23 = landingpad { ptr, i32 }
          cleanup
  %24 = extractvalue { ptr, i32 } %23, 0
  store ptr %24, ptr %4, align 8
  %25 = extractvalue { ptr, i32 } %23, 1
  store i32 %25, ptr %5, align 4
  call void @_ZN5vcpkg15LocalizedStringD2Ev(ptr noundef nonnull align 8 dereferenceable(32) %2) #18
  call void @llvm.lifetime.end.p0(i64 32, ptr %2) #18
  br label %26

26:                                               ; preds = %22
  %27 = load ptr, ptr %4, align 8
  %28 = load i32, ptr %5, align 4
  %29 = insertvalue { ptr, i32 } poison, ptr %27, 0
  %30 = insertvalue { ptr, i32 } %29, i32 %28, 1
  resume { ptr, i32 } %30
}