; Function Attrs: mustprogress uwtable
define internal fastcc void @_ZN5vcpkgL23display_upgrade_messageEv() unnamed_addr #0 personality ptr @__gxx_personality_v0 {
  %1 = alloca %"struct.vcpkg::LocalizedString", align 8
  call void @llvm.lifetime.start.p0(i64 32, ptr nonnull %1) #20
  call void @_ZN5vcpkg11note_prefixEv(ptr dead_on_unwind nonnull writable sret(%"struct.vcpkg::LocalizedString") align 8 %1)
  %.sroa.0.0.copyload = load i64, ptr @_ZN5vcpkg20msgChecksUpdateVcpkgE, align 8, !tbaa !30
  invoke void @_ZN5vcpkg3msg9format_toIJEJEEEvRNS_15LocalizedStringENS0_8MessageTIJDpT_EEEDpNS0_6TagArgINS_8identityIS5_E4typeET0_EE(ptr noundef nonnull align 8 dereferenceable(32) %1, i64 %.sroa.0.0.copyload)
          to label %_ZNO5vcpkg15LocalizedString6appendIJEJEEEOS0_NS_3msg8MessageTIJDpT_EEEDpNS3_6TagArgINS_8identityIS5_E4typeET0_EE.exit unwind label %16

_ZNO5vcpkg15LocalizedString6appendIJEJEEEOS0_NS_3msg8MessageTIJDpT_EEEDpNS3_6TagArgINS_8identityIS5_E4typeET0_EE.exit: ; preds = %0
  %2 = invoke noundef nonnull align 8 dereferenceable(32) ptr @_ZNO5vcpkg15LocalizedString10append_rawEc(ptr noundef nonnull align 8 dereferenceable(32) %1, i8 noundef signext 10)
          to label %3 unwind label %16

3:                                                ; preds = %_ZNO5vcpkg15LocalizedString6appendIJEJEEEOS0_NS_3msg8MessageTIJDpT_EEEDpNS3_6TagArgINS_8identityIS5_E4typeET0_EE.exit
  %4 = call { ptr, i64 } @_ZNK5vcpkg15LocalizedStringcvNS_10StringViewEEv(ptr noundef nonnull align 8 dereferenceable(32) %2) #20
  %5 = extractvalue { ptr, i64 } %4, 0
  %6 = extractvalue { ptr, i64 } %4, 1
  invoke void @_ZN5vcpkg3msg32write_unlocalized_text_to_stderrENS_5ColorENS_10StringViewE(i8 noundef signext 49, ptr %5, i64 %6)
          to label %7 unwind label %16

7:                                                ; preds = %3
  %8 = load ptr, ptr %1, align 8, !tbaa !24
  %9 = getelementptr inbounds nuw i8, ptr %1, i64 16
  %10 = icmp eq ptr %8, %9
  br i1 %10, label %_ZNKSt7__cxx1112basic_stringIcSt11char_traitsIcESaIcEE11_M_is_localEv.exit.thread.i.i.i, label %_ZNKSt7__cxx1112basic_stringIcSt11char_traitsIcESaIcEE11_M_is_localEv.exit.i.i.i

_ZNKSt7__cxx1112basic_stringIcSt11char_traitsIcESaIcEE11_M_is_localEv.exit.thread.i.i.i: ; preds = %7
  %11 = getelementptr inbounds nuw i8, ptr %1, i64 8
  %12 = load i64, ptr %11, align 8, !tbaa !28
  %13 = icmp ult i64 %12, 16
  call void @llvm.assume(i1 %13)
  br label %_ZN5vcpkg15LocalizedStringD2Ev.exit

_ZNKSt7__cxx1112basic_stringIcSt11char_traitsIcESaIcEE11_M_is_localEv.exit.i.i.i: ; preds = %7
  %14 = load i64, ptr %9, align 8, !tbaa !29
  %15 = add i64 %14, 1
  call void @_ZdlPvm(ptr noundef %8, i64 noundef %15) #22
  br label %_ZN5vcpkg15LocalizedStringD2Ev.exit

_ZN5vcpkg15LocalizedStringD2Ev.exit:              ; preds = %_ZNKSt7__cxx1112basic_stringIcSt11char_traitsIcESaIcEE11_M_is_localEv.exit.thread.i.i.i, %_ZNKSt7__cxx1112basic_stringIcSt11char_traitsIcESaIcEE11_M_is_localEv.exit.i.i.i
  call void @llvm.lifetime.end.p0(i64 32, ptr nonnull %1) #20
  ret void

16:                                               ; preds = %0, %3, %_ZNO5vcpkg15LocalizedString6appendIJEJEEEOS0_NS_3msg8MessageTIJDpT_EEEDpNS3_6TagArgINS_8identityIS5_E4typeET0_EE.exit
  %17 = landingpad { ptr, i32 }
          cleanup
  %18 = load ptr, ptr %1, align 8, !tbaa !24
  %19 = getelementptr inbounds nuw i8, ptr %1, i64 16
  %20 = icmp eq ptr %18, %19
  br i1 %20, label %_ZNKSt7__cxx1112basic_stringIcSt11char_traitsIcESaIcEE11_M_is_localEv.exit.thread.i.i.i3, label %_ZNKSt7__cxx1112basic_stringIcSt11char_traitsIcESaIcEE11_M_is_localEv.exit.i.i.i2

_ZNKSt7__cxx1112basic_stringIcSt11char_traitsIcESaIcEE11_M_is_localEv.exit.thread.i.i.i3: ; preds = %16
  %21 = getelementptr inbounds nuw i8, ptr %1, i64 8
  %22 = load i64, ptr %21, align 8, !tbaa !28
  %23 = icmp ult i64 %22, 16
  call void @llvm.assume(i1 %23)
  br label %_ZN5vcpkg15LocalizedStringD2Ev.exit4

_ZNKSt7__cxx1112basic_stringIcSt11char_traitsIcESaIcEE11_M_is_localEv.exit.i.i.i2: ; preds = %16
  %24 = load i64, ptr %19, align 8, !tbaa !29
  %25 = add i64 %24, 1
  call void @_ZdlPvm(ptr noundef %18, i64 noundef %25) #22
  br label %_ZN5vcpkg15LocalizedStringD2Ev.exit4

_ZN5vcpkg15LocalizedStringD2Ev.exit4:             ; preds = %_ZNKSt7__cxx1112basic_stringIcSt11char_traitsIcESaIcEE11_M_is_localEv.exit.thread.i.i.i3, %_ZNKSt7__cxx1112basic_stringIcSt11char_traitsIcESaIcEE11_M_is_localEv.exit.i.i.i2
  call void @llvm.lifetime.end.p0(i64 32, ptr nonnull %1) #20
  resume { ptr, i32 } %17
}